; Function Attrs: nounwind uwtable
define internal void @unpackiter_dealloc(ptr noundef %0) #0 {
  %2 = getelementptr i8, ptr %0, i64 8
  %.val = load ptr, ptr %2, align 8, !tbaa !24
  tail call void @PyObject_GC_UnTrack(ptr noundef %0) #7
  %3 = getelementptr inbounds nuw i8, ptr %0, i64 16
  %4 = load ptr, ptr %3, align 8, !tbaa !40
  %.not.i6 = icmp eq ptr %4, null
  br i1 %.not.i6, label %Py_XDECREF.exit, label %5

5:                                                ; preds = %1
  %6 = load i32, ptr %4, align 8, !tbaa !18
  %.not.i.i = icmp sgt i32 %6, -1
  br i1 %.not.i.i, label %7, label %Py_XDECREF.exit

7:                                                ; preds = %5
  %8 = add nsw i32 %6, -1
  store i32 %8, ptr %4, align 8, !tbaa !18
  %9 = icmp eq i32 %8, 0
  br i1 %9, label %10, label %Py_XDECREF.exit

10:                                               ; preds = %7
  tail call void @_Py_Dealloc(ptr noundef nonnull %4) #7
  br label %Py_XDECREF.exit

Py_XDECREF.exit:                                  ; preds = %1, %5, %7, %10
  %11 = getelementptr inbounds nuw i8, ptr %0, i64 24
  tail call void @PyBuffer_Release(ptr noundef nonnull %11) #7
  tail call void @PyObject_GC_Del(ptr noundef nonnull %0) #7
  %12 = load i32, ptr %.val, align 8, !tbaa !18
  %.not.i = icmp sgt i32 %12, -1
  br i1 %.not.i, label %13, label %Py_DECREF.exit

13:                                               ; preds = %Py_XDECREF.exit
  %14 = add nsw i32 %12, -1
  store i32 %14, ptr %.val, align 8, !tbaa !18
  %15 = icmp eq i32 %14, 0
  br i1 %15, label %16, label %Py_DECREF.exit

16:                                               ; preds = %13
  tail call void @_Py_Dealloc(ptr noundef nonnull %.val) #7
  br label %Py_DECREF.exit

Py_DECREF.exit:                                   ; preds = %Py_XDECREF.exit, %13, %16
  ret void
}